(dp0
S'OriginalConfig'
p1
ccopy_reg
_reconstructor
p2
(cWMCore.Configuration
Configuration
p3
c__builtin__
object
p4
Ntp5
Rp6
(dp7
S'Site'
p8
g2
(cWMCore.Configuration
ConfigSection
p9
g4
Ntp10
Rp11
(dp12
S'_internal_skipChecks'
p13
I00
sS'_internal_documentation'
p14
S''
p15
sS'_internal_settings'
p16
c__builtin__
set
p17
((lp18
S'whitelist'
p19
aS'storageSite'
p20
atp21
Rp22
sS'_internal_name'
p23
g8
sS'_internal_docstrings'
p24
(dp25
sS'_internal_children'
p26
g17
((lp27
tp28
Rp29
sg20
S'T3_CH_CERNBOX'
p30
sS'_internal_parent_ref'
p31
Nsg19
(lp32
S'T2_US_MIT'
p33
aS'T2_US_Wisconsin'
p34
aS'T2_US_Purdue'
p35
aS'T2_US_UCSD'
p36
aS'T2_US_Caltech'
p37
aS'T2_US_Nebraska'
p38
asbsS'Data'
p39
g2
(g9
g4
Ntp40
Rp41
(dp42
S'inputDataset'
p43
S'/MuonEG/Run2018D-UL2018_MiniAODv2_NanoAODv9-v1/NANOAOD'
p44
sS'allowNonValidInputDataset'
p45
I01
sg13
I00
sS'splitting'
p46
S'FileBased'
p47
sS'unitsPerJob'
p48
I1
sg14
g15
sg16
g17
((lp49
g43
ag45
aS'publication'
p50
ag48
aS'ignoreLocality'
p51
aS'inputDBS'
p52
ag46
aS'outputDatasetTag'
p53
atp54
Rp55
sg51
I01
sg23
g39
sg52
S'global'
p56
sg24
(dp57
sg53
S'MuonEG_Run2018D'
p58
sg26
g17
((lp59
tp60
Rp61
sg31
Nsg50
I00
sbsS'_internal_sections'
p62
(lp63
S'General'
p64
aS'JobType'
p65
ag39
ag8
asg65
g2
(g9
g4
Ntp66
Rp67
(dp68
g13
I00
sS'scriptArgs'
p69
(lp70
S'isdata=data'
p71
aS'year=2018'
p72
aS'era=D'
p73
asg14
g15
sg16
g17
((lp74
g69
aS'scriptExe'
p75
aS'pluginName'
p76
aS'sendPythonFolder'
p77
aS'allowUndistributedCMSSW'
p78
aS'psetName'
p79
aS'inputFiles'
p80
atp81
Rp82
sg23
g65
sg75
S'./WWG_crab_script.sh'
p83
sg24
(dp84
sg77
I01
sg76
S'Analysis'
p85
sg26
g17
((lp86
tp87
Rp88
sg78
I01
sg79
S'PSet.py'
p89
sg31
Nsg80
(lp90
S'../../../scripts/haddnano.py'
p91
aS'../WWG_selector/WWG_postproc.py'
p92
aS'../WWG_selector/WWG_Module.py'
p93
aS'../WWG_selector/WWG_keep_and_drop.txt'
p94
aS'../WWG_selector/WWG_output_branch.txt'
p95
aS'../WWG_selector/DAS_filesearch.py'
p96
aS'../WWG_selector/Cert_314472-325175_13TeV_Legacy2018_Collisions18_JSON.txt'
p97
asbsg64
g2
(g9
g4
Ntp98
Rp99
(dp100
S'workArea'
p101
S'crab2018'
p102
sg13
I00
sg14
g15
sg16
g17
((lp103
g101
aS'transferLogs'
p104
aS'requestName'
p105
atp106
Rp107
sg23
g64
sg24
(dp108
sg26
g17
((lp109
tp110
Rp111
sg105
g58
sg31
Nsg104
I00
sbsbsS'voGroup'
p112
g15
sS'Server'
p113
S'cmsweb.cern.ch'
p114
sS'instance'
p115
S'prod'
p116
sS'RequestName'
p117
V220119_105417:yian_crab_MuonEG_Run2018D
p118
sS'voRole'
p119
S'NULL'
p120
sS'Port'
p121
g15
s.