(dp0
S'OriginalConfig'
p1
ccopy_reg
_reconstructor
p2
(cWMCore.Configuration
Configuration
p3
c__builtin__
object
p4
Ntp5
Rp6
(dp7
S'Site'
p8
g2
(cWMCore.Configuration
ConfigSection
p9
g4
Ntp10
Rp11
(dp12
S'_internal_skipChecks'
p13
I00
sS'_internal_documentation'
p14
S''
p15
sS'_internal_settings'
p16
c__builtin__
set
p17
((lp18
S'whitelist'
p19
aS'storageSite'
p20
atp21
Rp22
sS'_internal_name'
p23
g8
sS'_internal_docstrings'
p24
(dp25
sS'_internal_children'
p26
g17
((lp27
tp28
Rp29
sg20
S'T3_CH_CERNBOX'
p30
sS'_internal_parent_ref'
p31
Nsg19
(lp32
S'T2_US_MIT'
p33
aS'T2_US_Wisconsin'
p34
aS'T2_US_Purdue'
p35
aS'T2_US_UCSD'
p36
aS'T2_US_Caltech'
p37
aS'T2_US_Nebraska'
p38
asbsS'Data'
p39
g2
(g9
g4
Ntp40
Rp41
(dp42
S'inputDataset'
p43
S'/DYJetsToLL_M-50_TuneCP5_13TeV-amcatnloFXFX-pythia8/RunIISummer20UL17NanoAODv9-106X_mc2017_realistic_v9-v2/NANOAODSIM'
p44
sS'allowNonValidInputDataset'
p45
I01
sg13
I00
sS'splitting'
p46
S'FileBased'
p47
sS'unitsPerJob'
p48
I1
sg14
g15
sg16
g17
((lp49
g43
ag45
aS'publication'
p50
ag48
aS'ignoreLocality'
p51
aS'inputDBS'
p52
ag46
aS'outputDatasetTag'
p53
atp54
Rp55
sg51
I01
sg23
g39
sg52
S'global'
p56
sg24
(dp57
sg53
S'DYJetsToLL_M-50_TuneCP5_13TeV-amcatnloFXFX-pythia8_2017'
p58
sg26
g17
((lp59
tp60
Rp61
sg31
Nsg50
I00
sbsS'_internal_sections'
p62
(lp63
S'General'
p64
aS'JobType'
p65
ag39
ag8
asg65
g2
(g9
g4
Ntp66
Rp67
(dp68
g13
I00
sS'scriptArgs'
p69
(lp70
S'isdata=MC'
p71
aS'year=2017'
p72
aS'era=B'
p73
asg14
g15
sg16
g17
((lp74
g69
aS'scriptExe'
p75
aS'pluginName'
p76
aS'sendPythonFolder'
p77
aS'allowUndistributedCMSSW'
p78
aS'psetName'
p79
aS'inputFiles'
p80
atp81
Rp82
sg23
g65
sg75
S'./WWG_crab_script.sh'
p83
sg24
(dp84
sg77
I01
sg76
S'Analysis'
p85
sg26
g17
((lp86
tp87
Rp88
sg78
I01
sg79
S'PSet.py'
p89
sg31
Nsg80
(lp90
S'../../../scripts/haddnano.py'
p91
aS'../WWG_selector/WWG_postproc.py'
p92
aS'../WWG_selector/WWG_Module.py'
p93
aS'../WWG_selector/WWG_keep_and_drop.txt'
p94
aS'../WWG_selector/WWG_output_branch.txt'
p95
aS'../WWG_selector/DAS_filesearch.py'
p96
asbsg64
g2
(g9
g4
Ntp97
Rp98
(dp99
S'workArea'
p100
S'crab2017'
p101
sg13
I00
sg14
g15
sg16
g17
((lp102
g100
aS'transferLogs'
p103
aS'requestName'
p104
atp105
Rp106
sg23
g64
sg24
(dp107
sg26
g17
((lp108
tp109
Rp110
sg104
g58
sg31
Nsg103
I00
sbsbsS'voGroup'
p111
g15
sS'Server'
p112
S'cmsweb.cern.ch'
p113
sS'instance'
p114
S'prod'
p115
sS'RequestName'
p116
V220217_141756:yian_crab_DYJetsToLL_M-50_TuneCP5_13TeV-amcatnloFXFX-pythia8_2017
p117
sS'voRole'
p118
S'NULL'
p119
sS'Port'
p120
g15
s.