(dp0
S'OriginalConfig'
p1
ccopy_reg
_reconstructor
p2
(cWMCore.Configuration
Configuration
p3
c__builtin__
object
p4
Ntp5
Rp6
(dp7
S'Site'
p8
g2
(cWMCore.Configuration
ConfigSection
p9
g4
Ntp10
Rp11
(dp12
S'_internal_skipChecks'
p13
I00
sS'_internal_documentation'
p14
S''
p15
sS'_internal_settings'
p16
c__builtin__
set
p17
((lp18
S'whitelist'
p19
aS'storageSite'
p20
atp21
Rp22
sS'_internal_name'
p23
g8
sS'_internal_docstrings'
p24
(dp25
sS'_internal_children'
p26
g17
((lp27
tp28
Rp29
sg20
S'T2_CH_CERN'
p30
sS'_internal_parent_ref'
p31
Nsg19
(lp32
S'T2_US_MIT'
p33
aS'T2_US_Wisconsin'
p34
aS'T2_US_Purdue'
p35
aS'T2_US_UCSD'
p36
aS'T2_US_Caltech'
p37
aS'T2_US_Nebraska'
p38
asbsS'Data'
p39
g2
(g9
g4
Ntp40
Rp41
(dp42
S'inputDataset'
p43
S'/MuonEG/Run2018D-UL2018_MiniAODv2_NanoAODv9-v1/NANOAOD'
p44
sS'allowNonValidInputDataset'
p45
I01
sg13
I00
sS'splitting'
p46
S'LumiBased'
p47
sS'unitsPerJob'
p48
I50
sg14
g15
sg16
g17
((lp49
g43
ag45
aS'publication'
p50
ag48
aS'ignoreLocality'
p51
ag46
aS'inputDBS'
p52
aS'lumiMask'
p53
aS'outputDatasetTag'
p54
atp55
Rp56
sg51
I01
sg23
g39
sg52
S'global'
p57
sg24
(dp58
sg54
S'MuonEG_Run2018D'
p59
sg26
g17
((lp60
tp61
Rp62
sg31
Nsg53
S'/afs/cern.ch/cms/CAF/CMSCOMM/COMM_DQM/certification/Collisions18/13TeV/Legacy_2018/Cert_314472-325175_13TeV_Legacy2018_Collisions18_JSON.txt'
p63
sg50
I00
sbsS'_internal_sections'
p64
(lp65
S'General'
p66
aS'JobType'
p67
ag39
ag8
asg67
g2
(g9
g4
Ntp68
Rp69
(dp70
g13
I00
sS'scriptArgs'
p71
(lp72
S'isdata=data'
p73
aS'year=2018'
p74
aS'era=D'
p75
asg14
g15
sg16
g17
((lp76
g71
aS'scriptExe'
p77
aS'pluginName'
p78
aS'sendPythonFolder'
p79
aS'allowUndistributedCMSSW'
p80
aS'psetName'
p81
aS'inputFiles'
p82
atp83
Rp84
sg23
g67
sg77
S'./WWG_crab_script.sh'
p85
sg24
(dp86
sg79
I01
sg78
S'Analysis'
p87
sg26
g17
((lp88
tp89
Rp90
sg80
I01
sg81
S'PSet.py'
p91
sg31
Nsg82
(lp92
S'../../../../scripts/haddnano.py'
p93
aS'../WWG_selector/WWG_postproc.py'
p94
aS'../WWG_selector/WWG_Module.py'
p95
aS'../WWG_selector/WWG_keep_and_drop.txt'
p96
aS'../WWG_selector/WWG_output_branch.txt'
p97
aS'../WWG_selector/DAS_filesearch.py'
p98
asbsg66
g2
(g9
g4
Ntp99
Rp100
(dp101
S'workArea'
p102
S'crab2018'
p103
sg13
I00
sg14
g15
sg16
g17
((lp104
g102
aS'transferLogs'
p105
aS'requestName'
p106
atp107
Rp108
sg23
g66
sg24
(dp109
sg26
g17
((lp110
tp111
Rp112
sg106
g59
sg31
Nsg105
I00
sbsbsS'voGroup'
p113
g15
sS'Server'
p114
S'cmsweb.cern.ch'
p115
sS'instance'
p116
S'prod'
p117
sS'RequestName'
p118
V220120_173535:yian_crab_MuonEG_Run2018D
p119
sS'voRole'
p120
S'NULL'
p121
sS'Port'
p122
g15
s.